target datalayout = "e-m:e-p270:32:32-p271:32:32-p272:64:64-i64:64-i128:128-f80:128-n8:16:32:64-S128"
target triple = "x86_64-pc-linux-gnu"

%struct.display_data = type { i64, i32, ptr, i8, i32, ptr, ptr, ptr, ptr, ptr, ptr, ptr, ptr }

@.str.8 = private unnamed_addr constant [19 x i8] c"button-press-event\00", align 1
@.str.13 = private unnamed_addr constant [8 x i8] c"gtk-add\00", align 1
@.str.14 = private unnamed_addr constant [17 x i8] c"gtk-dialog-error\00", align 1
@.str.15 = private unnamed_addr constant [31 x i8] c"Couldn't add page to notebook\0A\00", align 1

; Function Attrs: nounwind uwtable
define dso_local void @create_page(ptr noundef %0, ptr noundef %1) #0 {
  %3 = alloca ptr, align 8
  %4 = alloca ptr, align 8
  %5 = alloca ptr, align 8
  %6 = alloca ptr, align 8
  %7 = alloca ptr, align 8
  %8 = alloca ptr, align 8
  %9 = alloca ptr, align 8
  %10 = alloca ptr, align 8
  %11 = alloca i32, align 4
  store ptr %0, ptr %3, align 8
  store ptr %1, ptr %4, align 8
  call void @llvm.lifetime.start.p0(i64 8, ptr %5) #11
  %12 = call ptr @create_scrolled_window()
  store ptr %12, ptr %5, align 8
  call void @llvm.lifetime.start.p0(i64 8, ptr %6) #11
  %13 = call ptr @gtk_event_box_new()
  store ptr %13, ptr %6, align 8
  call void @llvm.lifetime.start.p0(i64 8, ptr %7) #11
  %14 = load ptr, ptr %4, align 8
  %15 = getelementptr inbounds nuw %struct.display_data, ptr %14, i32 0, i32 2
  %16 = load ptr, ptr %15, align 8
  %17 = call ptr @gtk_label_new(ptr noundef %16)
  store ptr %17, ptr %7, align 8
  call void @llvm.lifetime.start.p0(i64 8, ptr %8) #11
  %18 = call ptr @gtk_event_box_new()
  store ptr %18, ptr %8, align 8
  call void @llvm.lifetime.start.p0(i64 8, ptr %9) #11
  call void @llvm.lifetime.start.p0(i64 8, ptr %10) #11
  store ptr null, ptr %10, align 8
  call void @llvm.lifetime.start.p0(i64 4, ptr %11) #11
  %19 = load ptr, ptr %4, align 8
  %20 = getelementptr inbounds nuw %struct.display_data, ptr %19, i32 0, i32 1
  %21 = load i32, ptr %20, align 8
  %22 = icmp eq i32 %21, 9
  br i1 %22, label %23, label %26

23:                                               ; preds = %2
  %24 = call ptr @gtk_table_new(i32 noundef 10, i32 noundef 3, i32 noundef 0)
  store ptr %24, ptr %9, align 8
  %25 = call ptr @gtk_image_new_from_stock(ptr noundef @.str.13, i32 noundef 2)
  store ptr %25, ptr %10, align 8
  br label %33

26:                                               ; preds = %2
  %27 = call ptr @gtk_table_new(i32 noundef 1, i32 noundef 3, i32 noundef 0)
  store ptr %27, ptr %9, align 8
  %28 = call ptr @gtk_image_new_from_stock(ptr noundef @.str.14, i32 noundef 2)
  store ptr %28, ptr %10, align 8
  %29 = load ptr, ptr %8, align 8
  %30 = call ptr @g_type_check_instance_cast(ptr noundef %29, i64 noundef 80)
  %31 = load ptr, ptr %4, align 8
  %32 = call i64 @g_signal_connect_data(ptr noundef %30, ptr noundef @.str.8, ptr noundef @close_tab, ptr noundef %31, ptr noundef null, i32 noundef 0)
  br label %33

33:                                               ; preds = %26, %23
  %34 = load ptr, ptr %8, align 8
  %35 = call i64 @gtk_container_get_type() #12
  %36 = call ptr @g_type_check_instance_cast(ptr noundef %34, i64 noundef %35)
  %37 = load ptr, ptr %10, align 8
  call void @gtk_container_add(ptr noundef %36, ptr noundef %37)
  %38 = load ptr, ptr %8, align 8
  call void @gtk_widget_set_size_request(ptr noundef %38, i32 noundef 10, i32 noundef 10)
  %39 = load ptr, ptr %6, align 8
  %40 = call i64 @gtk_container_get_type() #12
  %41 = call ptr @g_type_check_instance_cast(ptr noundef %39, i64 noundef %40)
  %42 = load ptr, ptr %7, align 8
  call void @gtk_container_add(ptr noundef %41, ptr noundef %42)
  %43 = load ptr, ptr %6, align 8
  %44 = call i64 @gtk_event_box_get_type() #12
  %45 = call ptr @g_type_check_instance_cast(ptr noundef %43, i64 noundef %44)
  call void @gtk_event_box_set_above_child(ptr noundef %45, i32 noundef 0)
  %46 = load ptr, ptr %6, align 8
  %47 = call ptr @g_type_check_instance_cast(ptr noundef %46, i64 noundef 80)
  %48 = load ptr, ptr %4, align 8
  %49 = call i64 @g_signal_connect_data(ptr noundef %47, ptr noundef @.str.8, ptr noundef @tab_pressed, ptr noundef %48, ptr noundef null, i32 noundef 0)
  %50 = load ptr, ptr %9, align 8
  %51 = call i64 @gtk_table_get_type() #12
  %52 = call ptr @g_type_check_instance_cast(ptr noundef %50, i64 noundef %51)
  call void @gtk_table_set_homogeneous(ptr noundef %52, i32 noundef 0)
  %53 = load ptr, ptr %9, align 8
  %54 = call i64 @gtk_table_get_type() #12
  %55 = call ptr @g_type_check_instance_cast(ptr noundef %53, i64 noundef %54)
  call void @gtk_table_set_col_spacings(ptr noundef %55, i32 noundef 5)
  %56 = load ptr, ptr %9, align 8
  %57 = call i64 @gtk_container_get_type() #12
  %58 = call ptr @g_type_check_instance_cast(ptr noundef %56, i64 noundef %57)
  call void @gtk_container_set_border_width(ptr noundef %58, i32 noundef 1)
  %59 = load ptr, ptr %9, align 8
  %60 = call i64 @gtk_table_get_type() #12
  %61 = call ptr @g_type_check_instance_cast(ptr noundef %59, i64 noundef %60)
  %62 = load ptr, ptr %6, align 8
  call void @gtk_table_attach_defaults(ptr noundef %61, ptr noundef %62, i32 noundef 0, i32 noundef 1, i32 noundef 0, i32 noundef 1)
  %63 = load ptr, ptr %9, align 8
  %64 = call i64 @gtk_table_get_type() #12
  %65 = call ptr @g_type_check_instance_cast(ptr noundef %63, i64 noundef %64)
  %66 = load ptr, ptr %8, align 8
  call void @gtk_table_attach_defaults(ptr noundef %65, ptr noundef %66, i32 noundef 2, i32 noundef 3, i32 noundef 0, i32 noundef 1)
  %67 = load ptr, ptr %9, align 8
  %68 = call i64 @gtk_container_get_type() #12
  %69 = call ptr @g_type_check_instance_cast(ptr noundef %67, i64 noundef %68)
  %70 = load ptr, ptr %7, align 8
  call void @gtk_container_set_focus_child(ptr noundef %69, ptr noundef %70)
  %71 = load ptr, ptr %9, align 8
  call void @gtk_widget_show_all(ptr noundef %71)
  %72 = load ptr, ptr %3, align 8
  %73 = call i64 @gtk_notebook_get_type() #12
  %74 = call ptr @g_type_check_instance_cast(ptr noundef %72, i64 noundef %73)
  %75 = load ptr, ptr %5, align 8
  %76 = call i64 @gtk_widget_get_type() #12
  %77 = call ptr @g_type_check_instance_cast(ptr noundef %75, i64 noundef %76)
  %78 = load ptr, ptr %9, align 8
  %79 = call i32 @gtk_notebook_append_page(ptr noundef %74, ptr noundef %77, ptr noundef %78)
  store i32 %79, ptr %11, align 4
  %80 = icmp eq i32 %79, -1
  br i1 %80, label %81, label %86

81:                                               ; preds = %33
  br label %82

82:                                               ; preds = %81
  call void (ptr, i32, ptr, ...) @g_log(ptr noundef null, i32 noundef 4, ptr noundef @.str.15)
  br label %83

83:                                               ; preds = %83, %82
  br label %83, !llvm.loop !30

84:                                               ; No predecessors!
  br label %85

85:                                               ; preds = %84
  br label %86

86:                                               ; preds = %85, %33
  %87 = load i32, ptr %11, align 4
  %88 = load ptr, ptr %4, align 8
  %89 = getelementptr inbounds nuw %struct.display_data, ptr %88, i32 0, i32 4
  store i32 %87, ptr %89, align 4
  call void @llvm.lifetime.end.p0(i64 4, ptr %11) #11
  call void @llvm.lifetime.end.p0(i64 8, ptr %10) #11
  call void @llvm.lifetime.end.p0(i64 8, ptr %9) #11
  call void @llvm.lifetime.end.p0(i64 8, ptr %8) #11
  call void @llvm.lifetime.end.p0(i64 8, ptr %7) #11
  call void @llvm.lifetime.end.p0(i64 8, ptr %6) #11
  call void @llvm.lifetime.end.p0(i64 8, ptr %5) #11
  ret void
}