; Function Attrs: nounwind uwtable
define dso_local void @create_page(ptr noundef %0, ptr noundef %1) local_unnamed_addr #2 {
  %3 = tail call ptr @create_scrolled_window()
  %4 = tail call ptr @gtk_event_box_new() #16
  %5 = getelementptr inbounds nuw i8, ptr %1, i64 16
  %6 = load ptr, ptr %5, align 8
  %7 = tail call ptr @gtk_label_new(ptr noundef %6) #16
  %8 = tail call ptr @gtk_event_box_new() #16
  %9 = getelementptr inbounds nuw i8, ptr %1, i64 8
  %10 = load i32, ptr %9, align 8
  %11 = icmp eq i32 %10, 9
  br i1 %11, label %12, label %15

12:                                               ; preds = %2
  %13 = tail call ptr @gtk_table_new(i32 noundef 10, i32 noundef 3, i32 noundef 0) #16
  %14 = tail call ptr @gtk_image_new_from_stock(ptr noundef nonnull @.str.13, i32 noundef 2) #16
  br label %20

15:                                               ; preds = %2
  %16 = tail call ptr @gtk_table_new(i32 noundef 1, i32 noundef 3, i32 noundef 0) #16
  %17 = tail call ptr @gtk_image_new_from_stock(ptr noundef nonnull @.str.14, i32 noundef 2) #16
  %18 = tail call ptr @g_type_check_instance_cast(ptr noundef %8, i64 noundef 80) #16
  %19 = tail call i64 @g_signal_connect_data(ptr noundef %18, ptr noundef nonnull @.str.8, ptr noundef nonnull @close_tab, ptr noundef nonnull %1, ptr noundef null, i32 noundef 0) #16
  br label %20

20:                                               ; preds = %15, %12
  %.026 = phi ptr [ %14, %12 ], [ %17, %15 ]
  %.0 = phi ptr [ %13, %12 ], [ %16, %15 ]
  %21 = tail call i64 @gtk_container_get_type() #17
  %22 = tail call ptr @g_type_check_instance_cast(ptr noundef %8, i64 noundef %21) #16
  tail call void @gtk_container_add(ptr noundef %22, ptr noundef %.026) #16
  tail call void @gtk_widget_set_size_request(ptr noundef %8, i32 noundef 10, i32 noundef 10) #16
  %23 = tail call ptr @g_type_check_instance_cast(ptr noundef %4, i64 noundef %21) #16
  tail call void @gtk_container_add(ptr noundef %23, ptr noundef %7) #16
  %24 = tail call i64 @gtk_event_box_get_type() #17
  %25 = tail call ptr @g_type_check_instance_cast(ptr noundef %4, i64 noundef %24) #16
  tail call void @gtk_event_box_set_above_child(ptr noundef %25, i32 noundef 0) #16
  %26 = tail call ptr @g_type_check_instance_cast(ptr noundef %4, i64 noundef 80) #16
  %27 = tail call i64 @g_signal_connect_data(ptr noundef %26, ptr noundef nonnull @.str.8, ptr noundef nonnull @tab_pressed, ptr noundef nonnull %1, ptr noundef null, i32 noundef 0) #16
  %28 = tail call i64 @gtk_table_get_type() #17
  %29 = tail call ptr @g_type_check_instance_cast(ptr noundef %.0, i64 noundef %28) #16
  tail call void @gtk_table_set_homogeneous(ptr noundef %29, i32 noundef 0) #16
  %30 = tail call ptr @g_type_check_instance_cast(ptr noundef %.0, i64 noundef %28) #16
  tail call void @gtk_table_set_col_spacings(ptr noundef %30, i32 noundef 5) #16
  %31 = tail call ptr @g_type_check_instance_cast(ptr noundef %.0, i64 noundef %21) #16
  tail call void @gtk_container_set_border_width(ptr noundef %31, i32 noundef 1) #16
  %32 = tail call ptr @g_type_check_instance_cast(ptr noundef %.0, i64 noundef %28) #16
  tail call void @gtk_table_attach_defaults(ptr noundef %32, ptr noundef %4, i32 noundef 0, i32 noundef 1, i32 noundef 0, i32 noundef 1) #16
  %33 = tail call ptr @g_type_check_instance_cast(ptr noundef %.0, i64 noundef %28) #16
  tail call void @gtk_table_attach_defaults(ptr noundef %33, ptr noundef %8, i32 noundef 2, i32 noundef 3, i32 noundef 0, i32 noundef 1) #16
  %34 = tail call ptr @g_type_check_instance_cast(ptr noundef %.0, i64 noundef %21) #16
  tail call void @gtk_container_set_focus_child(ptr noundef %34, ptr noundef %7) #16
  tail call void @gtk_widget_show_all(ptr noundef %.0) #16
  %35 = tail call i64 @gtk_notebook_get_type() #17
  %36 = tail call ptr @g_type_check_instance_cast(ptr noundef %0, i64 noundef %35) #16
  %37 = tail call i64 @gtk_widget_get_type() #17
  %38 = tail call ptr @g_type_check_instance_cast(ptr noundef %3, i64 noundef %37) #16
  %39 = tail call i32 @gtk_notebook_append_page(ptr noundef %36, ptr noundef %38, ptr noundef %.0) #16
  %40 = icmp eq i32 %39, -1
  br i1 %40, label %41, label %43

41:                                               ; preds = %20
  tail call void (ptr, i32, ptr, ...) @g_log(ptr noundef null, i32 noundef 4, ptr noundef nonnull @.str.15) #16
  br label %42

42:                                               ; preds = %42, %41
  br label %42, !llvm.loop !28

43:                                               ; preds = %20
  %44 = getelementptr inbounds nuw i8, ptr %1, i64 28
  store i32 %39, ptr %44, align 4
  ret void
}